target datalayout = "e-m:e-p270:32:32-p271:32:32-p272:64:64-i64:64-i128:128-f80:128-n8:16:32:64-S128"
target triple = "x86_64-pc-linux-gnu"

%"class.grpc_core::RefCountedPtr" = type { ptr }
%struct.tsi_ssl_client_handshaker_factory = type { %struct.tsi_ssl_handshaker_factory, ptr, ptr, i64, %"class.grpc_core::RefCountedPtr", %"class.grpc_core::RefCountedPtr.2" }
%struct.tsi_ssl_handshaker_factory = type { ptr, %struct.gpr_refcount }
%struct.gpr_refcount = type { i64 }
%"class.grpc_core::RefCountedPtr.2" = type { ptr }

; Function Attrs: mustprogress uwtable
define internal noundef ptr @_ZL30tsi_ssl_handshaker_factory_refP26tsi_ssl_handshaker_factory(ptr noundef %0) #4 {
  %2 = alloca ptr, align 8
  %3 = alloca ptr, align 8
  store ptr %0, ptr %3, align 8, !tbaa !84
  %4 = load ptr, ptr %3, align 8, !tbaa !84
  %5 = icmp eq ptr %4, null
  br i1 %5, label %6, label %7

6:                                                ; preds = %1
  store ptr null, ptr %2, align 8
  br label %11

7:                                                ; preds = %1
  %8 = load ptr, ptr %3, align 8, !tbaa !84
  %9 = getelementptr inbounds nuw %struct.tsi_ssl_handshaker_factory, ptr %8, i32 0, i32 1
  call void @gpr_refn(ptr noundef %9, i32 noundef 1)
  %10 = load ptr, ptr %3, align 8, !tbaa !84
  store ptr %10, ptr %2, align 8
  br label %11

11:                                               ; preds = %7, %6
  %12 = load ptr, ptr %2, align 8
  ret ptr %12
}

; Function Attrs: mustprogress uwtable
define noundef ptr @_Z37tsi_ssl_client_handshaker_factory_refP33tsi_ssl_client_handshaker_factory(ptr noundef %0) #4 {
  %2 = alloca ptr, align 8
  %3 = alloca ptr, align 8
  store ptr %0, ptr %3, align 8, !tbaa !71
  %4 = load ptr, ptr %3, align 8, !tbaa !71
  %5 = icmp eq ptr %4, null
  br i1 %5, label %6, label %7

6:                                                ; preds = %1
  store ptr null, ptr %2, align 8
  br label %11

7:                                                ; preds = %1
  %8 = load ptr, ptr %3, align 8, !tbaa !71
  %9 = getelementptr inbounds nuw %struct.tsi_ssl_client_handshaker_factory, ptr %8, i32 0, i32 0
  %10 = call noundef ptr @_ZL30tsi_ssl_handshaker_factory_refP26tsi_ssl_handshaker_factory(ptr noundef %9)
  store ptr %10, ptr %2, align 8
  br label %11

11:                                               ; preds = %7, %6
  %12 = load ptr, ptr %2, align 8
  ret ptr %12
}