; Function Attrs: mustprogress uwtable
define noundef ptr @_Z37tsi_ssl_client_handshaker_factory_refP33tsi_ssl_client_handshaker_factory(ptr noundef returned %0) local_unnamed_addr #3 {
  %2 = icmp eq ptr %0, null
  br i1 %2, label %4, label %_ZL30tsi_ssl_handshaker_factory_refP26tsi_ssl_handshaker_factory.exit

_ZL30tsi_ssl_handshaker_factory_refP26tsi_ssl_handshaker_factory.exit: ; preds = %1
  %3 = getelementptr inbounds nuw i8, ptr %0, i64 8
  tail call void @gpr_refn(ptr noundef nonnull %3, i32 noundef 1)
  br label %4

4:                                                ; preds = %1, %_ZL30tsi_ssl_handshaker_factory_refP26tsi_ssl_handshaker_factory.exit
  ret ptr %0
}